target datalayout = "e-m:e-p270:32:32-p271:32:32-p272:64:64-i64:64-i128:128-f80:128-n8:16:32:64-S128"
target triple = "x86_64-pc-linux-gnu"

%struct.dt_pthread_mutex_t = type { %union.pthread_mutex_t }
%union.pthread_mutex_t = type { %struct.__pthread_mutex_s }
%struct.__pthread_mutex_s = type { i32, i32, i32, i32, i32, i16, i16, %struct.__pthread_internal_list }
%struct.__pthread_internal_list = type { ptr, ptr }
%struct.dt_iop_module_t = type { i32, ptr, ptr, ptr, ptr, ptr, ptr, ptr, ptr, ptr, ptr, ptr, ptr, ptr, ptr, ptr, ptr, ptr, ptr, ptr, ptr, ptr, ptr, ptr, ptr, ptr, ptr, ptr, ptr, ptr, ptr, ptr, ptr, ptr, ptr, ptr, ptr, ptr, ptr, ptr, ptr, ptr, ptr, ptr, ptr, ptr, ptr, ptr, ptr, ptr, ptr, ptr, ptr, ptr, ptr, ptr, ptr, [20 x i8], i32, i32, i32, i32, i32, i32, i32, [8 x i8], [4 x float], [4 x float], [4 x float], [4 x float], [4 x float], [4 x float], ptr, %struct.dt_dev_histogram_stats_t, [4 x i32], i32, i32, ptr, i32, i32, ptr, ptr, i32, ptr, %struct.dt_pthread_mutex_t, ptr, ptr, ptr, ptr, %struct.anon, ptr, ptr, ptr, ptr, ptr, ptr, ptr, i32, ptr, ptr, ptr, ptr, ptr, ptr, ptr, i32, ptr, i32, [128 x i8], i32, ptr, ptr, i32, [12 x i8] }
%struct.dt_dev_histogram_stats_t = type { i32, i64, i32, i32 }
%struct.anon = type { %struct.anon.0, %struct.anon.1 }
%struct.anon.0 = type { ptr, ptr }
%struct.anon.1 = type { ptr, i32 }
%struct.dt_iop_gui_blend_data_t = type { i32, i32, i32, i32, i32, i32, i32, ptr, ptr, ptr, ptr, ptr, ptr, ptr, ptr, ptr, ptr, ptr, ptr, ptr, [2 x %struct.dt_iop_gui_blendif_filter_t], ptr, ptr, ptr, ptr, ptr, ptr, ptr, ptr, ptr, ptr, ptr, ptr, i32, i32, ptr, i32, [8 x [2 x i32]], i32, i32, ptr, i32, ptr, ptr, ptr, [5 x ptr], [5 x i32], ptr, ptr, ptr, i32, ptr, ptr, i32, %struct.dt_pthread_mutex_t }
%struct.dt_iop_gui_blendif_filter_t = type { ptr, ptr, [4 x ptr], ptr, ptr, ptr }
%struct.dt_develop_blend_params_t = type { i32, i32, i32, float, float, i32, i32, i32, float, i32, float, float, float, float, i32, [2 x i32], [64 x float], [16 x float], [20 x i8], i32, i32, i32 }
%struct._GdkEventButton = type { i32, ptr, i8, i32, double, double, ptr, i32, i32, ptr, double, double }

@.str.41 = private unnamed_addr constant [4 x i8] c"Lab\00", align 1
@.str.42 = private unnamed_addr constant [14 x i8] c"RGB (display)\00", align 1
@.str.43 = private unnamed_addr constant [12 x i8] c"RGB (scene)\00", align 1
@.str.112 = private unnamed_addr constant [26 x i8] c"dt_transparent_background\00", align 1
@.str.216 = private unnamed_addr constant [34 x i8] c"reset to default blend colorspace\00", align 1
@.str.217 = private unnamed_addr constant [13 x i8] c"dt-blend-cst\00", align 1
@.str.218 = private unnamed_addr constant [9 x i8] c"activate\00", align 1
@.str.219 = private unnamed_addr constant [17 x i8] c"active_menu_item\00", align 1
@.str.220 = private unnamed_addr constant [31 x i8] c"reset and hide output channels\00", align 1
@.str.221 = private unnamed_addr constant [21 x i8] c"show output channels\00", align 1

; Function Attrs: inlinehint nounwind uwtable
define internal ptr @DTGTK_BUTTON(ptr noundef %0) #3 {
  %2 = alloca ptr, align 8
  store ptr %0, ptr %2, align 8, !tbaa !168
  %3 = load ptr, ptr %2, align 8, !tbaa !168
  %4 = call i64 @dtgtk_button_get_type()
  %5 = call ptr @g_type_check_instance_cast(ptr noundef %3, i64 noundef %4)
  ret ptr %5
}

; Function Attrs: nounwind uwtable
define internal void @_blendif_options_callback(ptr noundef %0, ptr noundef %1, ptr noundef %2) #0 {
  %4 = alloca ptr, align 8
  %5 = alloca ptr, align 8
  %6 = alloca ptr, align 8
  %7 = alloca ptr, align 8
  %8 = alloca i32, align 4
  %9 = alloca ptr, align 8
  %10 = alloca ptr, align 8
  %11 = alloca i32, align 4
  %12 = alloca i32, align 4
  store ptr %0, ptr %4, align 8, !tbaa !170
  store ptr %1, ptr %5, align 8, !tbaa !172
  store ptr %2, ptr %6, align 8, !tbaa !6
  %13 = load ptr, ptr %5, align 8, !tbaa !172
  %14 = getelementptr inbounds nuw %struct._GdkEventButton, ptr %13, i32 0, i32 8
  %15 = load i32, ptr %14, align 4, !tbaa !212
  %16 = icmp ne i32 %15, 1
  br i1 %16, label %17, label %23

17:                                               ; preds = %3
  %18 = load ptr, ptr %5, align 8, !tbaa !172
  %19 = getelementptr inbounds nuw %struct._GdkEventButton, ptr %18, i32 0, i32 8
  %20 = load i32, ptr %19, align 4, !tbaa !212
  %21 = icmp ne i32 %20, 2
  br i1 %21, label %22, label %23

22:                                               ; preds = %17
  br label %179

23:                                               ; preds = %17, %3
  call void @llvm.lifetime.start.p0(i64 8, ptr %7) #11
  %24 = load ptr, ptr %6, align 8, !tbaa !6
  %25 = getelementptr inbounds nuw %struct.dt_iop_module_t, ptr %24, i32 0, i32 88
  %26 = load ptr, ptr %25, align 8, !tbaa !15
  store ptr %26, ptr %7, align 8, !tbaa !31
  %27 = load ptr, ptr %7, align 8, !tbaa !31
  %28 = icmp ne ptr %27, null
  br i1 %28, label %29, label %39

29:                                               ; preds = %23
  %30 = load ptr, ptr %7, align 8, !tbaa !31
  %31 = getelementptr inbounds nuw %struct.dt_iop_gui_blend_data_t, ptr %30, i32 0, i32 0
  %32 = load i32, ptr %31, align 8, !tbaa !155
  %33 = icmp ne i32 %32, 0
  br i1 %33, label %34, label %39

34:                                               ; preds = %29
  %35 = load ptr, ptr %7, align 8, !tbaa !31
  %36 = getelementptr inbounds nuw %struct.dt_iop_gui_blend_data_t, ptr %35, i32 0, i32 2
  %37 = load i32, ptr %36, align 8, !tbaa !156
  %38 = icmp ne i32 %37, 0
  br i1 %38, label %40, label %39

39:                                               ; preds = %34, %29, %23
  store i32 1, ptr %8, align 4
  br label %177

40:                                               ; preds = %34
  call void @llvm.lifetime.start.p0(i64 8, ptr %9) #11
  call void @llvm.lifetime.start.p0(i64 8, ptr %10) #11
  %41 = call ptr @gtk_menu_new()
  %42 = call i64 @gtk_menu_get_type() #12
  %43 = call ptr @g_type_check_instance_cast(ptr noundef %41, i64 noundef %42)
  store ptr %43, ptr %10, align 8, !tbaa !296
  call void @llvm.lifetime.start.p0(i64 4, ptr %11) #11
  %44 = load ptr, ptr %6, align 8, !tbaa !6
  %45 = call i32 @dt_develop_blend_default_module_blend_colorspace(ptr noundef %44)
  store i32 %45, ptr %11, align 4, !tbaa !80
  call void @llvm.lifetime.start.p0(i64 4, ptr %12) #11
  %46 = load ptr, ptr %6, align 8, !tbaa !6
  %47 = getelementptr inbounds nuw %struct.dt_iop_module_t, ptr %46, i32 0, i32 86
  %48 = load ptr, ptr %47, align 8, !tbaa !77
  %49 = getelementptr inbounds nuw %struct.dt_develop_blend_params_t, ptr %48, i32 0, i32 1
  %50 = load i32, ptr %49, align 4, !tbaa !245
  store i32 %50, ptr %12, align 4, !tbaa !80
  %51 = load i32, ptr %11, align 4, !tbaa !80
  %52 = icmp eq i32 %51, 2
  br i1 %52, label %59, label %53

53:                                               ; preds = %40
  %54 = load i32, ptr %11, align 4, !tbaa !80
  %55 = icmp eq i32 %54, 3
  br i1 %55, label %59, label %56

56:                                               ; preds = %53
  %57 = load i32, ptr %11, align 4, !tbaa !80
  %58 = icmp eq i32 %57, 4
  br i1 %58, label %59, label %170

59:                                               ; preds = %56, %53, %40
  %60 = call ptr @dcgettext(ptr noundef null, ptr noundef @.str.216, i32 noundef 5) #11
  %61 = call ptr @gtk_menu_item_new_with_label(ptr noundef %60)
  store ptr %61, ptr %9, align 8, !tbaa !11
  %62 = load ptr, ptr %9, align 8, !tbaa !11
  %63 = call ptr @g_type_check_instance_cast(ptr noundef %62, i64 noundef 80)
  call void @g_object_set_data_full(ptr noundef %63, ptr noundef @.str.217, ptr noundef null, ptr noundef null)
  %64 = load ptr, ptr %9, align 8, !tbaa !11
  %65 = call ptr @g_type_check_instance_cast(ptr noundef %64, i64 noundef 80)
  %66 = load ptr, ptr %6, align 8, !tbaa !6
  %67 = call i64 @g_signal_connect_data(ptr noundef %65, ptr noundef @.str.218, ptr noundef @_blendif_select_colorspace, ptr noundef %66, ptr noundef null, i32 noundef 0)
  %68 = load ptr, ptr %10, align 8, !tbaa !296
  %69 = call i64 @gtk_menu_shell_get_type() #12
  %70 = call ptr @g_type_check_instance_cast(ptr noundef %68, i64 noundef %69)
  %71 = load ptr, ptr %9, align 8, !tbaa !11
  call void @gtk_menu_shell_append(ptr noundef %70, ptr noundef %71)
  %72 = load i32, ptr %11, align 4, !tbaa !80
  %73 = icmp eq i32 %72, 2
  br i1 %73, label %74, label %96

74:                                               ; preds = %59
  %75 = call ptr @dcgettext(ptr noundef null, ptr noundef @.str.41, i32 noundef 5) #11
  %76 = call ptr @gtk_check_menu_item_new_with_label(ptr noundef %75)
  store ptr %76, ptr %9, align 8, !tbaa !11
  %77 = load ptr, ptr %9, align 8, !tbaa !11
  call void @dt_gui_add_class(ptr noundef %77, ptr noundef @.str.112)
  %78 = load i32, ptr %12, align 4, !tbaa !80
  %79 = icmp eq i32 %78, 2
  br i1 %79, label %80, label %85

80:                                               ; preds = %74
  %81 = load ptr, ptr %9, align 8, !tbaa !11
  %82 = call i64 @gtk_check_menu_item_get_type() #12
  %83 = call ptr @g_type_check_instance_cast(ptr noundef %81, i64 noundef %82)
  call void @gtk_check_menu_item_set_active(ptr noundef %83, i32 noundef 1)
  %84 = load ptr, ptr %9, align 8, !tbaa !11
  call void @dt_gui_add_class(ptr noundef %84, ptr noundef @.str.219)
  br label %85

85:                                               ; preds = %80, %74
  %86 = load ptr, ptr %9, align 8, !tbaa !11
  %87 = call ptr @g_type_check_instance_cast(ptr noundef %86, i64 noundef 80)
  call void @g_object_set_data_full(ptr noundef %87, ptr noundef @.str.217, ptr noundef inttoptr (i64 2 to ptr), ptr noundef null)
  %88 = load ptr, ptr %9, align 8, !tbaa !11
  %89 = call ptr @g_type_check_instance_cast(ptr noundef %88, i64 noundef 80)
  %90 = load ptr, ptr %6, align 8, !tbaa !6
  %91 = call i64 @g_signal_connect_data(ptr noundef %89, ptr noundef @.str.218, ptr noundef @_blendif_select_colorspace, ptr noundef %90, ptr noundef null, i32 noundef 0)
  %92 = load ptr, ptr %10, align 8, !tbaa !296
  %93 = call i64 @gtk_menu_shell_get_type() #12
  %94 = call ptr @g_type_check_instance_cast(ptr noundef %92, i64 noundef %93)
  %95 = load ptr, ptr %9, align 8, !tbaa !11
  call void @gtk_menu_shell_append(ptr noundef %94, ptr noundef %95)
  br label %96

96:                                               ; preds = %85, %59
  %97 = call ptr @dcgettext(ptr noundef null, ptr noundef @.str.42, i32 noundef 5) #11
  %98 = call ptr @gtk_check_menu_item_new_with_label(ptr noundef %97)
  store ptr %98, ptr %9, align 8, !tbaa !11
  %99 = load ptr, ptr %9, align 8, !tbaa !11
  call void @dt_gui_add_class(ptr noundef %99, ptr noundef @.str.112)
  %100 = load i32, ptr %12, align 4, !tbaa !80
  %101 = icmp eq i32 %100, 3
  br i1 %101, label %102, label %107

102:                                              ; preds = %96
  %103 = load ptr, ptr %9, align 8, !tbaa !11
  %104 = call i64 @gtk_check_menu_item_get_type() #12
  %105 = call ptr @g_type_check_instance_cast(ptr noundef %103, i64 noundef %104)
  call void @gtk_check_menu_item_set_active(ptr noundef %105, i32 noundef 1)
  %106 = load ptr, ptr %9, align 8, !tbaa !11
  call void @dt_gui_add_class(ptr noundef %106, ptr noundef @.str.219)
  br label %107

107:                                              ; preds = %102, %96
  %108 = load ptr, ptr %9, align 8, !tbaa !11
  %109 = call ptr @g_type_check_instance_cast(ptr noundef %108, i64 noundef 80)
  call void @g_object_set_data_full(ptr noundef %109, ptr noundef @.str.217, ptr noundef inttoptr (i64 3 to ptr), ptr noundef null)
  %110 = load ptr, ptr %9, align 8, !tbaa !11
  %111 = call ptr @g_type_check_instance_cast(ptr noundef %110, i64 noundef 80)
  %112 = load ptr, ptr %6, align 8, !tbaa !6
  %113 = call i64 @g_signal_connect_data(ptr noundef %111, ptr noundef @.str.218, ptr noundef @_blendif_select_colorspace, ptr noundef %112, ptr noundef null, i32 noundef 0)
  %114 = load ptr, ptr %10, align 8, !tbaa !296
  %115 = call i64 @gtk_menu_shell_get_type() #12
  %116 = call ptr @g_type_check_instance_cast(ptr noundef %114, i64 noundef %115)
  %117 = load ptr, ptr %9, align 8, !tbaa !11
  call void @gtk_menu_shell_append(ptr noundef %116, ptr noundef %117)
  %118 = call ptr @dcgettext(ptr noundef null, ptr noundef @.str.43, i32 noundef 5) #11
  %119 = call ptr @gtk_check_menu_item_new_with_label(ptr noundef %118)
  store ptr %119, ptr %9, align 8, !tbaa !11
  %120 = load ptr, ptr %9, align 8, !tbaa !11
  call void @dt_gui_add_class(ptr noundef %120, ptr noundef @.str.112)
  %121 = load i32, ptr %12, align 4, !tbaa !80
  %122 = icmp eq i32 %121, 4
  br i1 %122, label %123, label %128

123:                                              ; preds = %107
  %124 = load ptr, ptr %9, align 8, !tbaa !11
  %125 = call i64 @gtk_check_menu_item_get_type() #12
  %126 = call ptr @g_type_check_instance_cast(ptr noundef %124, i64 noundef %125)
  call void @gtk_check_menu_item_set_active(ptr noundef %126, i32 noundef 1)
  %127 = load ptr, ptr %9, align 8, !tbaa !11
  call void @dt_gui_add_class(ptr noundef %127, ptr noundef @.str.219)
  br label %128

128:                                              ; preds = %123, %107
  %129 = load ptr, ptr %9, align 8, !tbaa !11
  %130 = call ptr @g_type_check_instance_cast(ptr noundef %129, i64 noundef 80)
  call void @g_object_set_data_full(ptr noundef %130, ptr noundef @.str.217, ptr noundef inttoptr (i64 4 to ptr), ptr noundef null)
  %131 = load ptr, ptr %9, align 8, !tbaa !11
  %132 = call ptr @g_type_check_instance_cast(ptr noundef %131, i64 noundef 80)
  %133 = load ptr, ptr %6, align 8, !tbaa !6
  %134 = call i64 @g_signal_connect_data(ptr noundef %132, ptr noundef @.str.218, ptr noundef @_blendif_select_colorspace, ptr noundef %133, ptr noundef null, i32 noundef 0)
  %135 = load ptr, ptr %10, align 8, !tbaa !296
  %136 = call i64 @gtk_menu_shell_get_type() #12
  %137 = call ptr @g_type_check_instance_cast(ptr noundef %135, i64 noundef %136)
  %138 = load ptr, ptr %9, align 8, !tbaa !11
  call void @gtk_menu_shell_append(ptr noundef %137, ptr noundef %138)
  %139 = load ptr, ptr %10, align 8, !tbaa !296
  %140 = call i64 @gtk_menu_shell_get_type() #12
  %141 = call ptr @g_type_check_instance_cast(ptr noundef %139, i64 noundef %140)
  %142 = call ptr @gtk_separator_menu_item_new()
  call void @gtk_menu_shell_append(ptr noundef %141, ptr noundef %142)
  %143 = load ptr, ptr %7, align 8, !tbaa !31
  %144 = getelementptr inbounds nuw %struct.dt_iop_gui_blend_data_t, ptr %143, i32 0, i32 41
  %145 = load i32, ptr %144, align 8, !tbaa !81
  %146 = icmp ne i32 %145, 0
  br i1 %146, label %147, label %158

147:                                              ; preds = %128
  %148 = call ptr @dcgettext(ptr noundef null, ptr noundef @.str.220, i32 noundef 5) #11
  %149 = call ptr @gtk_menu_item_new_with_label(ptr noundef %148)
  store ptr %149, ptr %9, align 8, !tbaa !11
  %150 = load ptr, ptr %9, align 8, !tbaa !11
  %151 = call ptr @g_type_check_instance_cast(ptr noundef %150, i64 noundef 80)
  %152 = load ptr, ptr %6, align 8, !tbaa !6
  %153 = call i64 @g_signal_connect_data(ptr noundef %151, ptr noundef @.str.218, ptr noundef @_blendif_hide_output_channels, ptr noundef %152, ptr noundef null, i32 noundef 0)
  %154 = load ptr, ptr %10, align 8, !tbaa !296
  %155 = call i64 @gtk_menu_shell_get_type() #12
  %156 = call ptr @g_type_check_instance_cast(ptr noundef %154, i64 noundef %155)
  %157 = load ptr, ptr %9, align 8, !tbaa !11
  call void @gtk_menu_shell_append(ptr noundef %156, ptr noundef %157)
  br label %169

158:                                              ; preds = %128
  %159 = call ptr @dcgettext(ptr noundef null, ptr noundef @.str.221, i32 noundef 5) #11
  %160 = call ptr @gtk_menu_item_new_with_label(ptr noundef %159)
  store ptr %160, ptr %9, align 8, !tbaa !11
  %161 = load ptr, ptr %9, align 8, !tbaa !11
  %162 = call ptr @g_type_check_instance_cast(ptr noundef %161, i64 noundef 80)
  %163 = load ptr, ptr %6, align 8, !tbaa !6
  %164 = call i64 @g_signal_connect_data(ptr noundef %162, ptr noundef @.str.218, ptr noundef @_blendif_show_output_channels, ptr noundef %163, ptr noundef null, i32 noundef 0)
  %165 = load ptr, ptr %10, align 8, !tbaa !296
  %166 = call i64 @gtk_menu_shell_get_type() #12
  %167 = call ptr @g_type_check_instance_cast(ptr noundef %165, i64 noundef %166)
  %168 = load ptr, ptr %9, align 8, !tbaa !11
  call void @gtk_menu_shell_append(ptr noundef %167, ptr noundef %168)
  br label %169

169:                                              ; preds = %158, %147
  br label %170

170:                                              ; preds = %169, %56
  %171 = load ptr, ptr %10, align 8, !tbaa !296
  %172 = load ptr, ptr %4, align 8, !tbaa !170
  %173 = call i64 @gtk_widget_get_type() #12
  %174 = call ptr @g_type_check_instance_cast(ptr noundef %172, i64 noundef %173)
  call void @dt_gui_menu_popup(ptr noundef %171, ptr noundef %174, i32 noundef 9, i32 noundef 3)
  %175 = load ptr, ptr %4, align 8, !tbaa !170
  %176 = call ptr @DTGTK_BUTTON(ptr noundef %175)
  call void @dtgtk_button_set_active(ptr noundef %176, i32 noundef 0)
  call void @llvm.lifetime.end.p0(i64 4, ptr %12) #11
  call void @llvm.lifetime.end.p0(i64 4, ptr %11) #11
  call void @llvm.lifetime.end.p0(i64 8, ptr %10) #11
  call void @llvm.lifetime.end.p0(i64 8, ptr %9) #11
  store i32 0, ptr %8, align 4
  br label %177

177:                                              ; preds = %170, %39
  call void @llvm.lifetime.end.p0(i64 8, ptr %7) #11
  %178 = load i32, ptr %8, align 4
  switch i32 %178, label %180 [
    i32 0, label %179
    i32 1, label %179
  ]

179:                                              ; preds = %22, %177, %177
  ret void

180:                                              ; preds = %177
  unreachable
}