; Function Attrs: nounwind uwtable
define internal void @_blendif_options_callback(ptr noundef %0, ptr noundef readonly captures(none) %1, ptr noundef %2) #0 {
  %4 = getelementptr inbounds nuw i8, ptr %1, i64 52
  %5 = load i32, ptr %4, align 4, !tbaa !184
  %.off = add i32 %5, -1
  %switch = icmp ult i32 %.off, 2
  br i1 %switch, label %6, label %80

6:                                                ; preds = %3
  %7 = getelementptr inbounds nuw i8, ptr %2, i64 776
  %8 = load ptr, ptr %7, align 8, !tbaa !6
  %.not61 = icmp eq ptr %8, null
  br i1 %.not61, label %80, label %9

9:                                                ; preds = %6
  %10 = load i32, ptr %8, align 8, !tbaa !141
  %.not62 = icmp eq i32 %10, 0
  br i1 %.not62, label %80, label %11

11:                                               ; preds = %9
  %12 = getelementptr inbounds nuw i8, ptr %8, i64 8
  %13 = load i32, ptr %12, align 8, !tbaa !142
  %.not63 = icmp eq i32 %13, 0
  br i1 %.not63, label %80, label %14

14:                                               ; preds = %11
  %15 = tail call ptr @gtk_menu_new() #18
  %16 = tail call i64 @gtk_menu_get_type() #19
  %17 = tail call ptr @g_type_check_instance_cast(ptr noundef %15, i64 noundef %16) #18
  %18 = tail call i32 @dt_develop_blend_default_module_blend_colorspace(ptr noundef nonnull %2) #18
  %19 = getelementptr inbounds nuw i8, ptr %2, i64 760
  %20 = load ptr, ptr %19, align 8, !tbaa !71
  %21 = getelementptr inbounds nuw i8, ptr %20, i64 4
  %22 = load i32, ptr %21, align 4, !tbaa !213
  %.off65 = add i32 %18, -2
  %switch66 = icmp ult i32 %.off65, 3
  br i1 %switch66, label %23, label %75

23:                                               ; preds = %14
  %24 = icmp eq i32 %18, 2
  %25 = tail call ptr @dcgettext(ptr noundef null, ptr noundef nonnull @.str.216, i32 noundef 5) #18
  %26 = tail call ptr @gtk_menu_item_new_with_label(ptr noundef %25) #18
  %27 = tail call ptr @g_type_check_instance_cast(ptr noundef %26, i64 noundef 80) #18
  tail call void @g_object_set_data_full(ptr noundef %27, ptr noundef nonnull @.str.217, ptr noundef null, ptr noundef null) #18
  %28 = tail call ptr @g_type_check_instance_cast(ptr noundef %26, i64 noundef 80) #18
  %29 = tail call i64 @g_signal_connect_data(ptr noundef %28, ptr noundef nonnull @.str.218, ptr noundef nonnull @_blendif_select_colorspace, ptr noundef nonnull %2, ptr noundef null, i32 noundef 0) #18
  %30 = tail call i64 @gtk_menu_shell_get_type() #19
  %31 = tail call ptr @g_type_check_instance_cast(ptr noundef %17, i64 noundef %30) #18
  tail call void @gtk_menu_shell_append(ptr noundef %31, ptr noundef %26) #18
  br i1 %24, label %32, label %44

32:                                               ; preds = %23
  %33 = tail call ptr @dcgettext(ptr noundef null, ptr noundef nonnull @.str.41, i32 noundef 5) #18
  %34 = tail call ptr @gtk_check_menu_item_new_with_label(ptr noundef %33) #18
  tail call void @dt_gui_add_class(ptr noundef %34, ptr noundef nonnull @.str.112) #18
  %35 = icmp eq i32 %22, 2
  br i1 %35, label %36, label %39

36:                                               ; preds = %32
  %37 = tail call i64 @gtk_check_menu_item_get_type() #19
  %38 = tail call ptr @g_type_check_instance_cast(ptr noundef %34, i64 noundef %37) #18
  tail call void @gtk_check_menu_item_set_active(ptr noundef %38, i32 noundef 1) #18
  tail call void @dt_gui_add_class(ptr noundef %34, ptr noundef nonnull @.str.219) #18
  br label %39

39:                                               ; preds = %36, %32
  %40 = tail call ptr @g_type_check_instance_cast(ptr noundef %34, i64 noundef 80) #18
  tail call void @g_object_set_data_full(ptr noundef %40, ptr noundef nonnull @.str.217, ptr noundef nonnull inttoptr (i64 2 to ptr), ptr noundef null) #18
  %41 = tail call ptr @g_type_check_instance_cast(ptr noundef %34, i64 noundef 80) #18
  %42 = tail call i64 @g_signal_connect_data(ptr noundef %41, ptr noundef nonnull @.str.218, ptr noundef nonnull @_blendif_select_colorspace, ptr noundef nonnull %2, ptr noundef null, i32 noundef 0) #18
  %43 = tail call ptr @g_type_check_instance_cast(ptr noundef %17, i64 noundef %30) #18
  tail call void @gtk_menu_shell_append(ptr noundef %43, ptr noundef %34) #18
  br label %44

44:                                               ; preds = %39, %23
  %45 = tail call ptr @dcgettext(ptr noundef null, ptr noundef nonnull @.str.42, i32 noundef 5) #18
  %46 = tail call ptr @gtk_check_menu_item_new_with_label(ptr noundef %45) #18
  tail call void @dt_gui_add_class(ptr noundef %46, ptr noundef nonnull @.str.112) #18
  %47 = icmp eq i32 %22, 3
  br i1 %47, label %48, label %51

48:                                               ; preds = %44
  %49 = tail call i64 @gtk_check_menu_item_get_type() #19
  %50 = tail call ptr @g_type_check_instance_cast(ptr noundef %46, i64 noundef %49) #18
  tail call void @gtk_check_menu_item_set_active(ptr noundef %50, i32 noundef 1) #18
  tail call void @dt_gui_add_class(ptr noundef %46, ptr noundef nonnull @.str.219) #18
  br label %51

51:                                               ; preds = %48, %44
  %52 = tail call ptr @g_type_check_instance_cast(ptr noundef %46, i64 noundef 80) #18
  tail call void @g_object_set_data_full(ptr noundef %52, ptr noundef nonnull @.str.217, ptr noundef nonnull inttoptr (i64 3 to ptr), ptr noundef null) #18
  %53 = tail call ptr @g_type_check_instance_cast(ptr noundef %46, i64 noundef 80) #18
  %54 = tail call i64 @g_signal_connect_data(ptr noundef %53, ptr noundef nonnull @.str.218, ptr noundef nonnull @_blendif_select_colorspace, ptr noundef nonnull %2, ptr noundef null, i32 noundef 0) #18
  %55 = tail call ptr @g_type_check_instance_cast(ptr noundef %17, i64 noundef %30) #18
  tail call void @gtk_menu_shell_append(ptr noundef %55, ptr noundef %46) #18
  %56 = tail call ptr @dcgettext(ptr noundef null, ptr noundef nonnull @.str.43, i32 noundef 5) #18
  %57 = tail call ptr @gtk_check_menu_item_new_with_label(ptr noundef %56) #18
  tail call void @dt_gui_add_class(ptr noundef %57, ptr noundef nonnull @.str.112) #18
  %58 = icmp eq i32 %22, 4
  br i1 %58, label %59, label %.sink.split

59:                                               ; preds = %51
  %60 = tail call i64 @gtk_check_menu_item_get_type() #19
  %61 = tail call ptr @g_type_check_instance_cast(ptr noundef %57, i64 noundef %60) #18
  tail call void @gtk_check_menu_item_set_active(ptr noundef %61, i32 noundef 1) #18
  tail call void @dt_gui_add_class(ptr noundef %57, ptr noundef nonnull @.str.219) #18
  br label %.sink.split

.sink.split:                                      ; preds = %59, %51
  %62 = tail call ptr @g_type_check_instance_cast(ptr noundef %57, i64 noundef 80) #18
  tail call void @g_object_set_data_full(ptr noundef %62, ptr noundef nonnull @.str.217, ptr noundef nonnull inttoptr (i64 4 to ptr), ptr noundef null) #18
  %63 = tail call ptr @g_type_check_instance_cast(ptr noundef %57, i64 noundef 80) #18
  %64 = tail call i64 @g_signal_connect_data(ptr noundef %63, ptr noundef nonnull @.str.218, ptr noundef nonnull @_blendif_select_colorspace, ptr noundef nonnull %2, ptr noundef null, i32 noundef 0) #18
  %65 = tail call ptr @g_type_check_instance_cast(ptr noundef %17, i64 noundef %30) #18
  tail call void @gtk_menu_shell_append(ptr noundef %65, ptr noundef %57) #18
  %66 = tail call ptr @g_type_check_instance_cast(ptr noundef %17, i64 noundef %30) #18
  %67 = tail call ptr @gtk_separator_menu_item_new() #18
  tail call void @gtk_menu_shell_append(ptr noundef %66, ptr noundef %67) #18
  %68 = getelementptr inbounds nuw i8, ptr %8, i64 480
  %69 = load i32, ptr %68, align 8, !tbaa !73
  %.not64 = icmp eq i32 %69, 0
  %.str.221..str.220 = select i1 %.not64, ptr @.str.221, ptr @.str.220
  %_blendif_show_output_channels._blendif_hide_output_channels = select i1 %.not64, ptr @_blendif_show_output_channels, ptr @_blendif_hide_output_channels
  %70 = tail call ptr @dcgettext(ptr noundef null, ptr noundef nonnull %.str.221..str.220, i32 noundef 5) #18
  %71 = tail call ptr @gtk_menu_item_new_with_label(ptr noundef %70) #18
  %72 = tail call ptr @g_type_check_instance_cast(ptr noundef %71, i64 noundef 80) #18
  %73 = tail call i64 @g_signal_connect_data(ptr noundef %72, ptr noundef nonnull @.str.218, ptr noundef nonnull %_blendif_show_output_channels._blendif_hide_output_channels, ptr noundef nonnull %2, ptr noundef null, i32 noundef 0) #18
  %74 = tail call ptr @g_type_check_instance_cast(ptr noundef %17, i64 noundef %30) #18
  tail call void @gtk_menu_shell_append(ptr noundef %74, ptr noundef %71) #18
  br label %75

75:                                               ; preds = %.sink.split, %14
  %76 = tail call i64 @gtk_widget_get_type() #19
  %77 = tail call ptr @g_type_check_instance_cast(ptr noundef %0, i64 noundef %76) #18
  tail call void @dt_gui_menu_popup(ptr noundef %17, ptr noundef %77, i32 noundef 9, i32 noundef 3) #18
  %78 = tail call i64 @dtgtk_button_get_type() #18
  %79 = tail call ptr @g_type_check_instance_cast(ptr noundef %0, i64 noundef %78) #18
  tail call void @dtgtk_button_set_active(ptr noundef %79, i32 noundef 0) #18
  br label %80

80:                                               ; preds = %3, %75, %11, %9, %6
  ret void
}